; ModuleID = '8/205.c'
source_filename = "8/205.c"
target datalayout = "e-m:e-p270:32:32-p271:32:32-p272:64:64-i64:64-f80:128-n8:16:32:64-S128"
target triple = "x86_64-pc-linux-gnu"

@.str = private unnamed_addr constant [3 x i8] c"%d\00", align 1
@.str.1 = private unnamed_addr constant [2 x i8] c" \00", align 1
@.str.2 = private unnamed_addr constant [4 x i8] c" %d\00", align 1
@.str.3 = private unnamed_addr constant [2 x i8] c"\0A\00", align 1
@.str.4 = private unnamed_addr constant [6 x i8] c"%d %d\00", align 1

; Function Attrs: noinline nounwind uwtable
define dso_local i32 @f(i32 %0, i32 %1) #0 {
  %3 = alloca i32, align 4
  %4 = alloca i32, align 4
  %5 = alloca i32, align 4
  %6 = alloca i32, align 4
  %7 = alloca i32, align 4
  %8 = alloca [100 x i32], align 16
  %9 = alloca [100 x i32], align 16
  %10 = alloca i32, align 4
  store i32 %0, i32* %3, align 4
  store i32 %1, i32* %4, align 4
  store i32 0, i32* %10, align 4
  store i32 0, i32* %5, align 4
  br label %11

11:                                               ; preds = %21, %2
  %12 = load i32, i32* %5, align 4
  %13 = load i32, i32* %3, align 4
  %14 = sub nsw i32 %13, 1
  %15 = icmp sle i32 %12, %14
  br i1 %15, label %16, label %24

16:                                               ; preds = %11
  %17 = load i32, i32* %5, align 4
  %18 = sext i32 %17 to i64
  %19 = getelementptr inbounds [100 x i32], [100 x i32]* %8, i64 0, i64 %18
  %20 = call i32 (i8*, ...) @__isoc99_scanf(i8* getelementptr inbounds ([3 x i8], [3 x i8]* @.str, i64 0, i64 0), i32* %19)
  br label %21

21:                                               ; preds = %16
  %22 = load i32, i32* %5, align 4
  %23 = add nsw i32 %22, 1
  store i32 %23, i32* %5, align 4
  br label %11

24:                                               ; preds = %11
  store i32 0, i32* %5, align 4
  br label %25

25:                                               ; preds = %35, %24
  %26 = load i32, i32* %5, align 4
  %27 = load i32, i32* %4, align 4
  %28 = sub nsw i32 %27, 1
  %29 = icmp sle i32 %26, %28
  br i1 %29, label %30, label %38

30:                                               ; preds = %25
  %31 = load i32, i32* %5, align 4
  %32 = sext i32 %31 to i64
  %33 = getelementptr inbounds [100 x i32], [100 x i32]* %9, i64 0, i64 %32
  %34 = call i32 (i8*, ...) @__isoc99_scanf(i8* getelementptr inbounds ([3 x i8], [3 x i8]* @.str, i64 0, i64 0), i32* %33)
  br label %35

35:                                               ; preds = %30
  %36 = load i32, i32* %5, align 4
  %37 = add nsw i32 %36, 1
  store i32 %37, i32* %5, align 4
  br label %25

38:                                               ; preds = %25
  store i32 0, i32* %6, align 4
  br label %39

39:                                               ; preds = %86, %38
  %40 = load i32, i32* %6, align 4
  %41 = load i32, i32* %3, align 4
  %42 = sub nsw i32 %41, 2
  %43 = icmp sle i32 %40, %42
  br i1 %43, label %44, label %89

44:                                               ; preds = %39
  store i32 0, i32* %5, align 4
  br label %45

45:                                               ; preds = %82, %44
  %46 = load i32, i32* %5, align 4
  %47 = load i32, i32* %3, align 4
  %48 = sub nsw i32 %47, 2
  %49 = load i32, i32* %6, align 4
  %50 = sub nsw i32 %48, %49
  %51 = icmp sle i32 %46, %50
  br i1 %51, label %52, label %85

52:                                               ; preds = %45
  %53 = load i32, i32* %5, align 4
  %54 = sext i32 %53 to i64
  %55 = getelementptr inbounds [100 x i32], [100 x i32]* %8, i64 0, i64 %54
  %56 = load i32, i32* %55, align 4
  %57 = load i32, i32* %5, align 4
  %58 = add nsw i32 %57, 1
  %59 = sext i32 %58 to i64
  %60 = getelementptr inbounds [100 x i32], [100 x i32]* %8, i64 0, i64 %59
  %61 = load i32, i32* %60, align 4
  %62 = icmp sgt i32 %56, %61
  br i1 %62, label %63, label %81

63:                                               ; preds = %52
  %64 = load i32, i32* %5, align 4
  %65 = sext i32 %64 to i64
  %66 = getelementptr inbounds [100 x i32], [100 x i32]* %8, i64 0, i64 %65
  %67 = load i32, i32* %66, align 4
  store i32 %67, i32* %7, align 4
  %68 = load i32, i32* %5, align 4
  %69 = add nsw i32 %68, 1
  %70 = sext i32 %69 to i64
  %71 = getelementptr inbounds [100 x i32], [100 x i32]* %8, i64 0, i64 %70
  %72 = load i32, i32* %71, align 4
  %73 = load i32, i32* %5, align 4
  %74 = sext i32 %73 to i64
  %75 = getelementptr inbounds [100 x i32], [100 x i32]* %8, i64 0, i64 %74
  store i32 %72, i32* %75, align 4
  %76 = load i32, i32* %7, align 4
  %77 = load i32, i32* %5, align 4
  %78 = add nsw i32 %77, 1
  %79 = sext i32 %78 to i64
  %80 = getelementptr inbounds [100 x i32], [100 x i32]* %8, i64 0, i64 %79
  store i32 %76, i32* %80, align 4
  br label %81

81:                                               ; preds = %63, %52
  br label %82

82:                                               ; preds = %81
  %83 = load i32, i32* %5, align 4
  %84 = add nsw i32 %83, 1
  store i32 %84, i32* %5, align 4
  br label %45

85:                                               ; preds = %45
  br label %86

86:                                               ; preds = %85
  %87 = load i32, i32* %6, align 4
  %88 = add nsw i32 %87, 1
  store i32 %88, i32* %6, align 4
  br label %39

89:                                               ; preds = %39
  store i32 0, i32* %6, align 4
  br label %90

90:                                               ; preds = %137, %89
  %91 = load i32, i32* %6, align 4
  %92 = load i32, i32* %4, align 4
  %93 = sub nsw i32 %92, 2
  %94 = icmp sle i32 %91, %93
  br i1 %94, label %95, label %140

95:                                               ; preds = %90
  store i32 0, i32* %5, align 4
  br label %96

96:                                               ; preds = %133, %95
  %97 = load i32, i32* %5, align 4
  %98 = load i32, i32* %4, align 4
  %99 = sub nsw i32 %98, 2
  %100 = load i32, i32* %6, align 4
  %101 = sub nsw i32 %99, %100
  %102 = icmp sle i32 %97, %101
  br i1 %102, label %103, label %136

103:                                              ; preds = %96
  %104 = load i32, i32* %5, align 4
  %105 = sext i32 %104 to i64
  %106 = getelementptr inbounds [100 x i32], [100 x i32]* %9, i64 0, i64 %105
  %107 = load i32, i32* %106, align 4
  %108 = load i32, i32* %5, align 4
  %109 = add nsw i32 %108, 1
  %110 = sext i32 %109 to i64
  %111 = getelementptr inbounds [100 x i32], [100 x i32]* %9, i64 0, i64 %110
  %112 = load i32, i32* %111, align 4
  %113 = icmp sgt i32 %107, %112
  br i1 %113, label %114, label %132

114:                                              ; preds = %103
  %115 = load i32, i32* %5, align 4
  %116 = sext i32 %115 to i64
  %117 = getelementptr inbounds [100 x i32], [100 x i32]* %9, i64 0, i64 %116
  %118 = load i32, i32* %117, align 4
  store i32 %118, i32* %7, align 4
  %119 = load i32, i32* %5, align 4
  %120 = add nsw i32 %119, 1
  %121 = sext i32 %120 to i64
  %122 = getelementptr inbounds [100 x i32], [100 x i32]* %9, i64 0, i64 %121
  %123 = load i32, i32* %122, align 4
  %124 = load i32, i32* %5, align 4
  %125 = sext i32 %124 to i64
  %126 = getelementptr inbounds [100 x i32], [100 x i32]* %9, i64 0, i64 %125
  store i32 %123, i32* %126, align 4
  %127 = load i32, i32* %7, align 4
  %128 = load i32, i32* %5, align 4
  %129 = add nsw i32 %128, 1
  %130 = sext i32 %129 to i64
  %131 = getelementptr inbounds [100 x i32], [100 x i32]* %9, i64 0, i64 %130
  store i32 %127, i32* %131, align 4
  br label %132

132:                                              ; preds = %114, %103
  br label %133

133:                                              ; preds = %132
  %134 = load i32, i32* %5, align 4
  %135 = add nsw i32 %134, 1
  store i32 %135, i32* %5, align 4
  br label %96

136:                                              ; preds = %96
  br label %137

137:                                              ; preds = %136
  %138 = load i32, i32* %6, align 4
  %139 = add nsw i32 %138, 1
  store i32 %139, i32* %6, align 4
  br label %90

140:                                              ; preds = %90
  store i32 0, i32* %5, align 4
  br label %141

141:                                              ; preds = %157, %140
  %142 = load i32, i32* %5, align 4
  %143 = load i32, i32* %3, align 4
  %144 = sub nsw i32 %143, 1
  %145 = icmp sle i32 %142, %144
  br i1 %145, label %146, label %162

146:                                              ; preds = %141
  %147 = load i32, i32* %10, align 4
  %148 = icmp ne i32 %147, 0
  br i1 %148, label %149, label %151

149:                                              ; preds = %146
  %150 = call i32 (i8*, ...) @printf(i8* getelementptr inbounds ([2 x i8], [2 x i8]* @.str.1, i64 0, i64 0))
  br label %151

151:                                              ; preds = %149, %146
  %152 = load i32, i32* %5, align 4
  %153 = sext i32 %152 to i64
  %154 = getelementptr inbounds [100 x i32], [100 x i32]* %8, i64 0, i64 %153
  %155 = load i32, i32* %154, align 4
  %156 = call i32 (i8*, ...) @printf(i8* getelementptr inbounds ([3 x i8], [3 x i8]* @.str, i64 0, i64 0), i32 %155)
  br label %157

157:                                              ; preds = %151
  %158 = load i32, i32* %5, align 4
  %159 = add nsw i32 %158, 1
  store i32 %159, i32* %5, align 4
  %160 = load i32, i32* %10, align 4
  %161 = add nsw i32 %160, 1
  store i32 %161, i32* %10, align 4
  br label %141

162:                                              ; preds = %141
  store i32 0, i32* %5, align 4
  br label %163

163:                                              ; preds = %174, %162
  %164 = load i32, i32* %5, align 4
  %165 = load i32, i32* %4, align 4
  %166 = sub nsw i32 %165, 1
  %167 = icmp sle i32 %164, %166
  br i1 %167, label %168, label %177

168:                                              ; preds = %163
  %169 = load i32, i32* %5, align 4
  %170 = sext i32 %169 to i64
  %171 = getelementptr inbounds [100 x i32], [100 x i32]* %9, i64 0, i64 %170
  %172 = load i32, i32* %171, align 4
  %173 = call i32 (i8*, ...) @printf(i8* getelementptr inbounds ([4 x i8], [4 x i8]* @.str.2, i64 0, i64 0), i32 %172)
  br label %174

174:                                              ; preds = %168
  %175 = load i32, i32* %5, align 4
  %176 = add nsw i32 %175, 1
  store i32 %176, i32* %5, align 4
  br label %163

177:                                              ; preds = %163
  %178 = call i32 (i8*, ...) @printf(i8* getelementptr inbounds ([2 x i8], [2 x i8]* @.str.3, i64 0, i64 0))
  ret i32 0
}

declare dso_local i32 @__isoc99_scanf(i8*, ...) #1

declare dso_local i32 @printf(i8*, ...) #1

; Function Attrs: noinline nounwind uwtable
define dso_local i32 @main() #0 {
  %1 = alloca i32, align 4
  %2 = alloca i32, align 4
  %3 = call i32 (i8*, ...) @__isoc99_scanf(i8* getelementptr inbounds ([6 x i8], [6 x i8]* @.str.4, i64 0, i64 0), i32* %1, i32* %2)
  %4 = load i32, i32* %1, align 4
  %5 = load i32, i32* %2, align 4
  %6 = call i32 @f(i32 %4, i32 %5)
  ret i32 0
}


!llvm.module.flags = !{!0}
!llvm.ident = !{!1}

!0 = !{i32 1, !"wchar_size", i32 4}
!1 = !{!"clang version 10.0.0-4ubuntu1 "}
